; Function Attrs: nounwind uwtable
define i32 @Nm_ManFindIdByName(ptr noundef %0, ptr noundef %1, i32 noundef %2) local_unnamed_addr #0 {
  %4 = tail call ptr @Nm_ManTableLookupName(ptr noundef %0, ptr noundef %1, i32 noundef %2) #10
  %.not = icmp eq ptr %4, null
  br i1 %.not, label %8, label %5

5:                                                ; preds = %3
  %6 = getelementptr inbounds nuw i8, ptr %4, i64 4
  %7 = load i32, ptr %6, align 4, !tbaa !20
  br label %8

8:                                                ; preds = %3, %5
  %.0 = phi i32 [ %7, %5 ], [ -1, %3 ]
  ret i32 %.0
}